target datalayout = "e-m:e-p270:32:32-p271:32:32-p272:64:64-i64:64-i128:128-f80:128-n8:16:32:64-S128"
target triple = "x86_64-pc-linux-gnu"

%struct.Vec_Int_t_ = type { i32, i32, ptr }
%struct.Rnm_Man_t_ = type { ptr, ptr, ptr, i32, i32, i32, ptr, ptr, ptr, ptr, i32, i32, i32, i32, i32, i32, i64, i64, i64, i64 }
%struct.Gia_Man_t_ = type { ptr, ptr, i32, i32, i32, i32, ptr, ptr, i32, i32, i32, ptr, ptr, %struct.Vec_Int_t_, %struct.Vec_Int_t_, i32, i32, i32, %struct.Vec_Int_t_, ptr, ptr, ptr, i32, i32, i32, i32, ptr, ptr, ptr, ptr, ptr, i32, i32, ptr, i32, ptr, ptr, ptr, ptr, ptr, ptr, ptr, ptr, ptr, ptr, ptr, ptr, ptr, ptr, ptr, ptr, ptr, ptr, %struct.Vec_Int_t_, %struct.Vec_Int_t_, ptr, ptr, ptr, ptr, ptr, ptr, ptr, ptr, ptr, ptr, ptr, ptr, ptr, ptr, ptr, ptr, ptr, ptr, ptr, ptr, ptr, i32, float, float, ptr, ptr, i32, ptr, ptr, ptr, ptr, ptr, ptr, ptr, ptr, ptr, ptr, ptr, ptr, ptr, ptr, ptr, i64, i64, ptr, ptr, i32, i32, i32, i32, i32, i32, i32, i32, i32, i32, i32, i32, ptr, ptr, ptr, ptr, ptr, ptr, ptr, ptr, i32, i32, i32, ptr, i32, i32, ptr, ptr, ptr, ptr, ptr, ptr, i32, i32, ptr, %struct.Vec_Int_t_, %struct.Vec_Int_t_, %struct.Vec_Int_t_, ptr, ptr, ptr, i32, i32, i32, i32, ptr, ptr, ptr, ptr, ptr }
%struct.Gia_Obj_t_ = type <{ i64, i32 }>

@.str = private unnamed_addr constant [2 x i8] c"-\00", align 1
@.str.1 = private unnamed_addr constant [2 x i8] c"1\00", align 1
@.str.2 = private unnamed_addr constant [2 x i8] c"0\00", align 1
@.str.3 = private unnamed_addr constant [6 x i8] c" %3d\0A\00", align 1

; Function Attrs: inlinehint nounwind uwtable
define internal i32 @Gia_ManPiNum(ptr noundef %0) #2 {
  %2 = alloca ptr, align 8
  store ptr %0, ptr %2, align 8, !tbaa !27
  %3 = load ptr, ptr %2, align 8, !tbaa !27
  %4 = getelementptr inbounds nuw %struct.Gia_Man_t_, ptr %3, i32 0, i32 11
  %5 = load ptr, ptr %4, align 8, !tbaa !62
  %6 = call i32 @Vec_IntSize(ptr noundef %5)
  %7 = load ptr, ptr %2, align 8, !tbaa !27
  %8 = getelementptr inbounds nuw %struct.Gia_Man_t_, ptr %7, i32 0, i32 2
  %9 = load i32, ptr %8, align 8, !tbaa !63
  %10 = sub nsw i32 %6, %9
  ret i32 %10
}

; Function Attrs: inlinehint nounwind uwtable
define internal i32 @Gia_ObjCioId(ptr noundef %0) #2 {
  %2 = alloca ptr, align 8
  store ptr %0, ptr %2, align 8, !tbaa !20
  %3 = load ptr, ptr %2, align 8, !tbaa !20
  %4 = load i64, ptr %3, align 4
  %5 = lshr i64 %4, 32
  %6 = and i64 %5, 536870911
  %7 = trunc i64 %6 to i32
  ret i32 %7
}

; Function Attrs: inlinehint nounwind uwtable
define internal i32 @Gia_ObjIsCi(ptr noundef %0) #2 {
  %2 = alloca ptr, align 8
  store ptr %0, ptr %2, align 8, !tbaa !20
  %3 = load ptr, ptr %2, align 8, !tbaa !20
  %4 = load i64, ptr %3, align 4
  %5 = lshr i64 %4, 31
  %6 = and i64 %5, 1
  %7 = trunc i64 %6 to i32
  %8 = icmp ne i32 %7, 0
  br i1 %8, label %9, label %15

9:                                                ; preds = %1
  %10 = load ptr, ptr %2, align 8, !tbaa !20
  %11 = load i64, ptr %10, align 4
  %12 = and i64 %11, 536870911
  %13 = trunc i64 %12 to i32
  %14 = icmp eq i32 %13, 536870911
  br label %15

15:                                               ; preds = %9, %1
  %16 = phi i1 [ false, %1 ], [ %14, %9 ]
  %17 = zext i1 %16 to i32
  ret i32 %17
}

; Function Attrs: inlinehint nounwind uwtable
define internal i32 @Vec_IntFind(ptr noundef %0, i32 noundef %1) #2 {
  %3 = alloca i32, align 4
  %4 = alloca ptr, align 8
  %5 = alloca i32, align 4
  %6 = alloca i32, align 4
  %7 = alloca i32, align 4
  store ptr %0, ptr %4, align 8, !tbaa !8
  store i32 %1, ptr %5, align 4, !tbaa !10
  call void @llvm.lifetime.start.p0(i64 4, ptr %6) #8
  store i32 0, ptr %6, align 4, !tbaa !10
  br label %8

8:                                                ; preds = %27, %2
  %9 = load i32, ptr %6, align 4, !tbaa !10
  %10 = load ptr, ptr %4, align 8, !tbaa !8
  %11 = getelementptr inbounds nuw %struct.Vec_Int_t_, ptr %10, i32 0, i32 1
  %12 = load i32, ptr %11, align 4, !tbaa !24
  %13 = icmp slt i32 %9, %12
  br i1 %13, label %14, label %30

14:                                               ; preds = %8
  %15 = load ptr, ptr %4, align 8, !tbaa !8
  %16 = getelementptr inbounds nuw %struct.Vec_Int_t_, ptr %15, i32 0, i32 2
  %17 = load ptr, ptr %16, align 8, !tbaa !41
  %18 = load i32, ptr %6, align 4, !tbaa !10
  %19 = sext i32 %18 to i64
  %20 = getelementptr inbounds i32, ptr %17, i64 %19
  %21 = load i32, ptr %20, align 4, !tbaa !10
  %22 = load i32, ptr %5, align 4, !tbaa !10
  %23 = icmp eq i32 %21, %22
  br i1 %23, label %24, label %26

24:                                               ; preds = %14
  %25 = load i32, ptr %6, align 4, !tbaa !10
  store i32 %25, ptr %3, align 4
  store i32 1, ptr %7, align 4
  br label %31

26:                                               ; preds = %14
  br label %27

27:                                               ; preds = %26
  %28 = load i32, ptr %6, align 4, !tbaa !10
  %29 = add nsw i32 %28, 1
  store i32 %29, ptr %6, align 4, !tbaa !10
  br label %8, !llvm.loop !42

30:                                               ; preds = %8
  store i32 -1, ptr %3, align 4
  store i32 1, ptr %7, align 4
  br label %31

31:                                               ; preds = %30, %24
  call void @llvm.lifetime.end.p0(i64 4, ptr %6) #8
  %32 = load i32, ptr %3, align 4
  ret i32 %32
}

; Function Attrs: inlinehint nounwind uwtable
define internal i32 @Gia_ObjId(ptr noundef %0, ptr noundef %1) #2 {
  %3 = alloca ptr, align 8
  %4 = alloca ptr, align 8
  store ptr %0, ptr %3, align 8, !tbaa !27
  store ptr %1, ptr %4, align 8, !tbaa !20
  %5 = load ptr, ptr %4, align 8, !tbaa !20
  %6 = load ptr, ptr %3, align 8, !tbaa !27
  %7 = getelementptr inbounds nuw %struct.Gia_Man_t_, ptr %6, i32 0, i32 6
  %8 = load ptr, ptr %7, align 8, !tbaa !28
  %9 = ptrtoint ptr %5 to i64
  %10 = ptrtoint ptr %8 to i64
  %11 = sub i64 %9, %10
  %12 = sdiv exact i64 %11, 12
  %13 = trunc i64 %12 to i32
  ret i32 %13
}

; Function Attrs: inlinehint nounwind uwtable
define internal i32 @Gia_ObjIsPi(ptr noundef %0, ptr noundef %1) #2 {
  %3 = alloca ptr, align 8
  %4 = alloca ptr, align 8
  store ptr %0, ptr %3, align 8, !tbaa !27
  store ptr %1, ptr %4, align 8, !tbaa !20
  %5 = load ptr, ptr %4, align 8, !tbaa !20
  %6 = call i32 @Gia_ObjIsCi(ptr noundef %5)
  %7 = icmp ne i32 %6, 0
  br i1 %7, label %8, label %14

8:                                                ; preds = %2
  %9 = load ptr, ptr %4, align 8, !tbaa !20
  %10 = call i32 @Gia_ObjCioId(ptr noundef %9)
  %11 = load ptr, ptr %3, align 8, !tbaa !27
  %12 = call i32 @Gia_ManPiNum(ptr noundef %11)
  %13 = icmp slt i32 %10, %12
  br label %14

14:                                               ; preds = %8, %2
  %15 = phi i1 [ false, %2 ], [ %13, %8 ]
  %16 = zext i1 %15 to i32
  ret i32 %16
}

; Function Attrs: inlinehint nounwind uwtable
define internal ptr @Gia_ManObj(ptr noundef %0, i32 noundef %1) #2 {
  %3 = alloca ptr, align 8
  %4 = alloca i32, align 4
  store ptr %0, ptr %3, align 8, !tbaa !27
  store i32 %1, ptr %4, align 4, !tbaa !10
  %5 = load ptr, ptr %3, align 8, !tbaa !27
  %6 = getelementptr inbounds nuw %struct.Gia_Man_t_, ptr %5, i32 0, i32 6
  %7 = load ptr, ptr %6, align 8, !tbaa !28
  %8 = load i32, ptr %4, align 4, !tbaa !10
  %9 = sext i32 %8 to i64
  %10 = getelementptr inbounds %struct.Gia_Obj_t_, ptr %7, i64 %9
  ret ptr %10
}

; Function Attrs: inlinehint nounwind uwtable
define internal i32 @Vec_IntEntry(ptr noundef %0, i32 noundef %1) #2 {
  %3 = alloca ptr, align 8
  %4 = alloca i32, align 4
  store ptr %0, ptr %3, align 8, !tbaa !8
  store i32 %1, ptr %4, align 4, !tbaa !10
  %5 = load ptr, ptr %3, align 8, !tbaa !8
  %6 = getelementptr inbounds nuw %struct.Vec_Int_t_, ptr %5, i32 0, i32 2
  %7 = load ptr, ptr %6, align 8, !tbaa !41
  %8 = load i32, ptr %4, align 4, !tbaa !10
  %9 = sext i32 %8 to i64
  %10 = getelementptr inbounds i32, ptr %7, i64 %9
  %11 = load i32, ptr %10, align 4, !tbaa !10
  ret i32 %11
}

; Function Attrs: inlinehint nounwind uwtable
define internal i32 @Vec_IntSize(ptr noundef %0) #2 {
  %2 = alloca ptr, align 8
  store ptr %0, ptr %2, align 8, !tbaa !8
  %3 = load ptr, ptr %2, align 8, !tbaa !8
  %4 = getelementptr inbounds nuw %struct.Vec_Int_t_, ptr %3, i32 0, i32 1
  %5 = load i32, ptr %4, align 4, !tbaa !24
  ret i32 %5
}

; Function Attrs: nounwind uwtable
define void @Rnm_ManPrintSelected(ptr noundef %0, ptr noundef %1) #0 {
  %3 = alloca ptr, align 8
  %4 = alloca ptr, align 8
  %5 = alloca ptr, align 8
  %6 = alloca i32, align 4
  %7 = alloca i32, align 4
  store ptr %0, ptr %3, align 8, !tbaa !3
  store ptr %1, ptr %4, align 8, !tbaa !8
  call void @llvm.lifetime.start.p0(i64 8, ptr %5) #8
  call void @llvm.lifetime.start.p0(i64 4, ptr %6) #8
  call void @llvm.lifetime.start.p0(i64 4, ptr %7) #8
  store i32 0, ptr %7, align 4, !tbaa !10
  store i32 0, ptr %6, align 4, !tbaa !10
  br label %8

8:                                                ; preds = %54, %2
  %9 = load i32, ptr %6, align 4, !tbaa !10
  %10 = load ptr, ptr %3, align 8, !tbaa !3
  %11 = getelementptr inbounds nuw %struct.Rnm_Man_t_, ptr %10, i32 0, i32 2
  %12 = load ptr, ptr %11, align 8, !tbaa !12
  %13 = call i32 @Vec_IntSize(ptr noundef %12)
  %14 = icmp slt i32 %9, %13
  br i1 %14, label %15, label %26

15:                                               ; preds = %8
  %16 = load ptr, ptr %3, align 8, !tbaa !3
  %17 = getelementptr inbounds nuw %struct.Rnm_Man_t_, ptr %16, i32 0, i32 0
  %18 = load ptr, ptr %17, align 8, !tbaa !19
  %19 = load ptr, ptr %3, align 8, !tbaa !3
  %20 = getelementptr inbounds nuw %struct.Rnm_Man_t_, ptr %19, i32 0, i32 2
  %21 = load ptr, ptr %20, align 8, !tbaa !12
  %22 = load i32, ptr %6, align 4, !tbaa !10
  %23 = call i32 @Vec_IntEntry(ptr noundef %21, i32 noundef %22)
  %24 = call ptr @Gia_ManObj(ptr noundef %18, i32 noundef %23)
  store ptr %24, ptr %5, align 8, !tbaa !20
  %25 = icmp ne ptr %24, null
  br label %26

26:                                               ; preds = %15, %8
  %27 = phi i1 [ false, %8 ], [ %25, %15 ]
  br i1 %27, label %28, label %57

28:                                               ; preds = %26
  %29 = load ptr, ptr %3, align 8, !tbaa !3
  %30 = getelementptr inbounds nuw %struct.Rnm_Man_t_, ptr %29, i32 0, i32 0
  %31 = load ptr, ptr %30, align 8, !tbaa !19
  %32 = load ptr, ptr %5, align 8, !tbaa !20
  %33 = call i32 @Gia_ObjIsPi(ptr noundef %31, ptr noundef %32)
  %34 = icmp ne i32 %33, 0
  br i1 %34, label %35, label %37

35:                                               ; preds = %28
  %36 = call i32 (ptr, ...) @printf(ptr noundef @.str)
  br label %53

37:                                               ; preds = %28
  %38 = load ptr, ptr %4, align 8, !tbaa !8
  %39 = load ptr, ptr %3, align 8, !tbaa !3
  %40 = getelementptr inbounds nuw %struct.Rnm_Man_t_, ptr %39, i32 0, i32 0
  %41 = load ptr, ptr %40, align 8, !tbaa !19
  %42 = load ptr, ptr %5, align 8, !tbaa !20
  %43 = call i32 @Gia_ObjId(ptr noundef %41, ptr noundef %42)
  %44 = call i32 @Vec_IntFind(ptr noundef %38, i32 noundef %43)
  %45 = icmp sge i32 %44, 0
  br i1 %45, label %46, label %50

46:                                               ; preds = %37
  %47 = call i32 (ptr, ...) @printf(ptr noundef @.str.1)
  %48 = load i32, ptr %7, align 4, !tbaa !10
  %49 = add nsw i32 %48, 1
  store i32 %49, ptr %7, align 4, !tbaa !10
  br label %52

50:                                               ; preds = %37
  %51 = call i32 (ptr, ...) @printf(ptr noundef @.str.2)
  br label %52

52:                                               ; preds = %50, %46
  br label %53

53:                                               ; preds = %52, %35
  br label %54

54:                                               ; preds = %53
  %55 = load i32, ptr %6, align 4, !tbaa !10
  %56 = add nsw i32 %55, 1
  store i32 %56, ptr %6, align 4, !tbaa !10
  br label %8, !llvm.loop !22

57:                                               ; preds = %26
  %58 = load i32, ptr %7, align 4, !tbaa !10
  %59 = call i32 (ptr, ...) @printf(ptr noundef @.str.3, i32 noundef %58)
  call void @llvm.lifetime.end.p0(i64 4, ptr %7) #8
  call void @llvm.lifetime.end.p0(i64 4, ptr %6) #8
  call void @llvm.lifetime.end.p0(i64 8, ptr %5) #8
  ret void
}