; Function Attrs: nofree nounwind uwtable
define void @Rnm_ManPrintSelected(ptr noundef readonly captures(none) %0, ptr noundef readonly captures(none) %1) local_unnamed_addr #0 {
  %3 = getelementptr inbounds nuw i8, ptr %0, i64 16
  %4 = load ptr, ptr %3, align 8, !tbaa !3
  %5 = getelementptr i8, ptr %4, i64 4
  %.val24 = load i32, ptr %5, align 4, !tbaa !15
  %6 = icmp sgt i32 %.val24, 0
  br i1 %6, label %.lr.ph, label %.critedge

.lr.ph:                                           ; preds = %2
  %7 = getelementptr inbounds nuw i8, ptr %1, i64 4
  %8 = getelementptr inbounds nuw i8, ptr %1, i64 8
  br label %9

9:                                                ; preds = %.lr.ph, %37
  %indvars.iv = phi i64 [ 0, %.lr.ph ], [ %indvars.iv.next, %37 ]
  %10 = phi ptr [ %4, %.lr.ph ], [ %38, %37 ]
  %.026 = phi i32 [ 0, %.lr.ph ], [ %.1, %37 ]
  %11 = load ptr, ptr %0, align 8, !tbaa !18
  %12 = getelementptr i8, ptr %10, i64 8
  %.val17 = load ptr, ptr %12, align 8, !tbaa !19
  %13 = getelementptr inbounds nuw i32, ptr %.val17, i64 %indvars.iv
  %14 = load i32, ptr %13, align 4, !tbaa !20
  %15 = getelementptr i8, ptr %11, i64 32
  %.val18 = load ptr, ptr %15, align 8, !tbaa !21
  %.not = icmp eq ptr %.val18, null
  br i1 %.not, label %.critedge, label %16

16:                                               ; preds = %9
  %17 = sext i32 %14 to i64
  %18 = getelementptr inbounds %struct.Gia_Obj_t_, ptr %.val18, i64 %17
  %.val19 = load i64, ptr %18, align 4
  %19 = and i64 %.val19, 2684354559
  %narrow.i.not.i = icmp eq i64 %19, 2684354559
  br i1 %narrow.i.not.i, label %Gia_ObjIsPi.exit, label %Gia_ObjIsPi.exit.thread

Gia_ObjIsPi.exit:                                 ; preds = %16
  %20 = lshr i64 %.val19, 32
  %21 = trunc nuw i64 %20 to i32
  %22 = and i32 %21, 536870911
  %23 = getelementptr i8, ptr %11, i64 16
  %.val4.i = load i32, ptr %23, align 8, !tbaa !35
  %24 = getelementptr i8, ptr %11, i64 64
  %.val5.i = load ptr, ptr %24, align 8, !tbaa !36
  %25 = getelementptr i8, ptr %.val5.i, i64 4
  %.val5.val.i = load i32, ptr %25, align 4, !tbaa !15
  %26 = sub nsw i32 %.val5.val.i, %.val4.i
  %.not23 = icmp slt i32 %22, %26
  br i1 %.not23, label %27, label %Gia_ObjIsPi.exit.thread

27:                                               ; preds = %Gia_ObjIsPi.exit
  %putchar16 = tail call i32 @putchar(i32 45)
  br label %37

Gia_ObjIsPi.exit.thread:                          ; preds = %16, %Gia_ObjIsPi.exit
  %28 = load i32, ptr %7, align 4, !tbaa !15
  %29 = icmp sgt i32 %28, 0
  br i1 %29, label %.lr.ph.i, label %Vec_IntFind.exit.thread

.lr.ph.i:                                         ; preds = %Gia_ObjIsPi.exit.thread
  %30 = load ptr, ptr %8, align 8, !tbaa !19
  %wide.trip.count.i = zext nneg i32 %28 to i64
  br label %31

31:                                               ; preds = %35, %.lr.ph.i
  %indvars.iv.i = phi i64 [ 0, %.lr.ph.i ], [ %indvars.iv.next.i, %35 ]
  %32 = getelementptr inbounds nuw i32, ptr %30, i64 %indvars.iv.i
  %33 = load i32, ptr %32, align 4, !tbaa !20
  %34 = icmp eq i32 %33, %14
  br i1 %34, label %Vec_IntFind.exit, label %35

35:                                               ; preds = %31
  %indvars.iv.next.i = add nuw nsw i64 %indvars.iv.i, 1
  %exitcond.not.i = icmp eq i64 %indvars.iv.next.i, %wide.trip.count.i
  br i1 %exitcond.not.i, label %Vec_IntFind.exit.thread, label %31, !llvm.loop !37

Vec_IntFind.exit:                                 ; preds = %31
  %putchar15 = tail call i32 @putchar(i32 49)
  %36 = add nsw i32 %.026, 1
  br label %37

Vec_IntFind.exit.thread:                          ; preds = %35, %Gia_ObjIsPi.exit.thread
  %putchar = tail call i32 @putchar(i32 48)
  br label %37

37:                                               ; preds = %27, %Vec_IntFind.exit.thread, %Vec_IntFind.exit
  %.1 = phi i32 [ %.026, %27 ], [ %36, %Vec_IntFind.exit ], [ %.026, %Vec_IntFind.exit.thread ]
  %indvars.iv.next = add nuw nsw i64 %indvars.iv, 1
  %38 = load ptr, ptr %3, align 8, !tbaa !3
  %39 = getelementptr i8, ptr %38, i64 4
  %.val = load i32, ptr %39, align 4, !tbaa !15
  %40 = sext i32 %.val to i64
  %41 = icmp slt i64 %indvars.iv.next, %40
  br i1 %41, label %9, label %.critedge, !llvm.loop !39

.critedge:                                        ; preds = %9, %37, %2
  %.0.lcssa = phi i32 [ 0, %2 ], [ %.1, %37 ], [ %.026, %9 ]
  %42 = tail call i32 (ptr, ...) @printf(ptr noundef nonnull dereferenceable(1) @.str.3, i32 noundef %.0.lcssa)
  ret void
}